; Function Attrs: nounwind uwtable
define dso_local range(i32 -1, 1) i32 @unpackmem_ptr(ptr noundef writeonly captures(none) initializes((0, 8)) %0, ptr noundef captures(none) initializes((0, 4)) %1, ptr noundef captures(none) %2) #0 {
  store ptr null, ptr %0, align 8
  %4 = getelementptr inbounds nuw i8, ptr %2, i64 16
  %5 = load i32, ptr %4, align 8
  %6 = getelementptr inbounds nuw i8, ptr %2, i64 20
  %7 = load i32, ptr %6, align 4
  %8 = sub i32 %5, %7
  %9 = icmp ult i32 %8, 4
  br i1 %9, label %unpack32.exit, label %10

10:                                               ; preds = %3
  %11 = getelementptr inbounds nuw i8, ptr %2, i64 8
  %12 = load ptr, ptr %11, align 8
  %13 = zext i32 %7 to i64
  %14 = getelementptr inbounds nuw i8, ptr %12, i64 %13
  %.0.copyload.i = load i32, ptr %14, align 1
  %15 = tail call noundef i32 @llvm.bswap.i32(i32 %.0.copyload.i)
  store i32 %15, ptr %1, align 4
  %16 = load i32, ptr %6, align 4
  %17 = add i32 %16, 4
  store i32 %17, ptr %6, align 4
  %18 = load i32, ptr %1, align 4
  %.not16 = icmp eq i32 %18, 0
  br i1 %.not16, label %34, label %19

19:                                               ; preds = %10
  %20 = icmp ugt i32 %18, 1073741824
  br i1 %20, label %21, label %23

21:                                               ; preds = %19
  %22 = tail call i32 (ptr, ...) @error(ptr noundef nonnull @.str.15, ptr noundef nonnull @__func__.unpackmem_ptr, i32 noundef %18, i32 noundef 1073741824) #14
  br label %unpack32.exit

23:                                               ; preds = %19
  %24 = load i32, ptr %4, align 8
  %25 = sub i32 %24, %17
  %26 = icmp ult i32 %25, %18
  br i1 %26, label %unpack32.exit, label %27

27:                                               ; preds = %23
  %28 = load ptr, ptr %11, align 8
  %29 = zext i32 %17 to i64
  %30 = getelementptr inbounds nuw i8, ptr %28, i64 %29
  store ptr %30, ptr %0, align 8
  %31 = load i32, ptr %1, align 4
  %32 = load i32, ptr %6, align 4
  %33 = add i32 %32, %31
  store i32 %33, ptr %6, align 4
  br label %34

unpack32.exit:                                    ; preds = %3, %23, %21
  store i32 0, ptr %1, align 4
  br label %34

34:                                               ; preds = %10, %unpack32.exit, %27
  %.0 = phi i32 [ -1, %unpack32.exit ], [ 0, %27 ], [ 0, %10 ]
  ret i32 %.0
}